target datalayout = "e-m:e-p270:32:32-p271:32:32-p272:64:64-i64:64-i128:128-f80:128-n8:16:32:64-S128"
target triple = "x86_64-pc-linux-gnu"

; Function Attrs: nounwind uwtable
define ptr @cl_load_cert(ptr noundef %0) #0 {
  %2 = alloca ptr, align 8
  %3 = alloca ptr, align 8
  %4 = alloca ptr, align 8
  %5 = alloca ptr, align 8
  %6 = alloca i32, align 4
  store ptr %0, ptr %3, align 8, !tbaa !3
  call void @llvm.lifetime.start.p0(i64 8, ptr %4) #8
  call void @llvm.lifetime.start.p0(i64 8, ptr %5) #8
  %7 = call ptr @BIO_s_file()
  %8 = call ptr @BIO_new(ptr noundef %7)
  store ptr %8, ptr %5, align 8, !tbaa !28
  %9 = load ptr, ptr %5, align 8, !tbaa !28
  %10 = icmp ne ptr %9, null
  br i1 %10, label %12, label %11

11:                                               ; preds = %1
  store ptr null, ptr %2, align 8
  store i32 1, ptr %6, align 4
  br label %27

12:                                               ; preds = %1
  %13 = load ptr, ptr %5, align 8, !tbaa !28
  %14 = load ptr, ptr %3, align 8, !tbaa !3
  %15 = call i64 @BIO_ctrl(ptr noundef %13, i32 noundef 108, i64 noundef 3, ptr noundef %14)
  %16 = trunc i64 %15 to i32
  %17 = icmp ne i32 %16, 1
  br i1 %17, label %18, label %21

18:                                               ; preds = %12
  %19 = load ptr, ptr %5, align 8, !tbaa !28
  %20 = call i32 @BIO_free(ptr noundef %19)
  store ptr null, ptr %2, align 8
  store i32 1, ptr %6, align 4
  br label %27

21:                                               ; preds = %12
  %22 = load ptr, ptr %5, align 8, !tbaa !28
  %23 = call ptr @PEM_read_bio_X509_AUX(ptr noundef %22, ptr noundef null, ptr noundef null, ptr noundef null)
  store ptr %23, ptr %4, align 8, !tbaa !26
  %24 = load ptr, ptr %5, align 8, !tbaa !28
  %25 = call i32 @BIO_free(ptr noundef %24)
  %26 = load ptr, ptr %4, align 8, !tbaa !26
  store ptr %26, ptr %2, align 8
  store i32 1, ptr %6, align 4
  br label %27

27:                                               ; preds = %21, %18, %11
  call void @llvm.lifetime.end.p0(i64 8, ptr %5) #8
  call void @llvm.lifetime.end.p0(i64 8, ptr %4) #8
  %28 = load ptr, ptr %2, align 8
  ret ptr %28
}