; Function Attrs: nounwind uwtable
define ptr @cl_load_cert(ptr noundef %0) local_unnamed_addr #1 {
  %2 = tail call ptr @BIO_s_file() #12
  %3 = tail call ptr @BIO_new(ptr noundef %2) #12
  %.not = icmp eq ptr %3, null
  br i1 %.not, label %10, label %4

4:                                                ; preds = %1
  %5 = tail call i64 @BIO_ctrl(ptr noundef nonnull %3, i32 noundef 108, i64 noundef 3, ptr noundef %0) #12
  %6 = and i64 %5, 4294967295
  %.not9 = icmp eq i64 %6, 1
  br i1 %.not9, label %7, label %.sink.split

7:                                                ; preds = %4
  %8 = tail call ptr @PEM_read_bio_X509_AUX(ptr noundef nonnull %3, ptr noundef null, ptr noundef null, ptr noundef null) #12
  br label %.sink.split

.sink.split:                                      ; preds = %4, %7
  %.0.ph = phi ptr [ %8, %7 ], [ null, %4 ]
  %9 = tail call i32 @BIO_free(ptr noundef nonnull %3) #12
  br label %10

10:                                               ; preds = %.sink.split, %1
  %.0 = phi ptr [ null, %1 ], [ %.0.ph, %.sink.split ]
  ret ptr %.0
}